; Function Attrs: mustprogress nofree norecurse nosync nounwind willreturn memory(argmem: readwrite) uwtable
define void @png_set_benign_errors(ptr noalias nocapture noundef %0, i32 noundef %1) local_unnamed_addr #0 {
  %.not = icmp eq i32 %1, 0
  %3 = getelementptr inbounds i8, ptr %0, i64 304
  %4 = load i32, ptr %3, align 8
  %5 = and i32 %4, -7340033
  %masksel = select i1 %.not, i32 0, i32 7340032
  %.sink = or disjoint i32 %5, %masksel
  store i32 %.sink, ptr %3, align 8
  ret void
}